Certificate Revocation List (CRL):
        Version 2 (0x1)
        Signature Algorithm: sha256WithRSAEncryption
        Issuer: OU = GlobalSign Root CA - R2, O = GlobalSign, CN = GlobalSign
        Last Update: Oct  1 00:00:00 2020 GMT
        Next Update: Apr 15 00:00:00 2021 GMT
        CRL extensions:
            X509v3 CRL Number:
                34
            X509v3 Authority Key Identifier:
                keyid:9B:E2:07:57:67:1C:1E:C0:6A:06:DE:59:B4:9A:2D:DF:DC:19:86:2E

Revoked Certificates:
    Serial Number: 040000000001220D3C0F75
        Revocation Date: Nov 25 00:00:00 2014 GMT
        CRL entry extensions:
            X509v3 CRL Reason Code:
                Cessation Of Operation
    Serial Number: 040000000001220D3C14C5
        Revocation Date: Nov 25 00:00:00 2014 GMT
        CRL entry extensions:
            X509v3 CRL Reason Code:
                Cessation Of Operation
    Serial Number: 040000000001100B8CA11B
        Revocation Date: Nov 25 00:00:00 2014 GMT
        CRL entry extensions:
            X509v3 CRL Reason Code:
                Cessation Of Operation
    Serial Number: 04000000000127FBF76700
        Revocation Date: Nov 25 00:00:00 2014 GMT
        CRL entry extensions:
            X509v3 CRL Reason Code:
                Cessation Of Operation
    Serial Number: 040000000001444EF0464E
        Revocation Date: Oct  7 00:00:00 2016 GMT
        CRL entry extensions:
            X509v3 CRL Reason Code:
                Cessation Of Operation
    Serial Number: 0400000000011256AD5FB2
        Revocation Date: Oct  7 00:00:00 2016 GMT
        CRL entry extensions:
            X509v3 CRL Reason Code:
                Cessation Of Operation
    Serial Number: 0400000000012F4EE15B63
        Revocation Date: Apr  7 00:00:00 2017 GMT
        CRL entry extensions:
            X509v3 CRL Reason Code:
                Cessation Of Operation
    Serial Number: 0400000000012F4EE15DD4
        Revocation Date: Apr  7 00:00:00 2017 GMT
        CRL entry extensions:
            X509v3 CRL Reason Code:
                Cessation Of Operation
    Serial Number: 040000000001444EF04A55
        Revocation Date: Sep 30 00:00:00 2019 GMT
        CRL entry extensions:
            X509v3 CRL Reason Code:
                Cessation Of Operation
    Serial Number: 30129BFD80D193D6B3E234E4
        Revocation Date: Sep 30 00:00:00 2019 GMT
        CRL entry extensions:
            X509v3 CRL Reason Code:
                Cessation Of Operation
    Serial Number: 01E3A9301CFC7206383F9A531D
        Revocation Date: Sep 30 00:00:00 2019 GMT
        CRL entry extensions:
            X509v3 CRL Reason Code:
                Cessation Of Operation
    Signature Algorithm: sha256WithRSAEncryption
         23:63:4e:98:d5:77:c2:b4:68:89:a4:81:87:6a:af:4c:2a:7c:
         dc:4e:bd:db:f5:13:f6:60:73:18:e1:1b:23:1b:f6:89:7c:97:
         3c:fc:5b:9a:8a:f9:2b:aa:5f:d9:6f:d2:42:68:78:ce:2d:b9:
         8c:8d:95:8b:ee:33:35:52:42:87:a7:e3:42:8d:5e:0a:9b:b2:
         fe:1f:14:06:5d:b0:57:de:ef:22:01:22:aa:60:3b:14:b0:1a:
         e7:a0:4a:17:e6:e5:ed:ad:96:26:5e:0d:c5:76:71:2e:97:46:
         81:7e:75:7f:42:78:7b:14:ba:fd:48:78:94:5d:38:ef:9f:3e:
         2a:8f:49:dc:93:99:1b:05:72:27:d2:6d:64:2a:d9:08:74:c6:
         f2:ab:0e:51:f8:d7:a0:32:1b:33:97:59:28:9e:ba:2d:3d:78:
         cd:54:bc:c2:e3:cc:0a:8f:89:09:2c:97:f1:cf:cc:9e:01:1c:
         2c:70:ed:bd:72:39:f2:56:2f:6b:37:d3:9a:b2:03:aa:40:09:
         2d:82:a6:4c:cb:4a:1d:d9:0d:25:6d:4a:46:ca:91:78:0c:b2:
         67:f9:ee:80:96:fa:12:57:d9:7f:93:1d:d3:8f:86:0d:5d:9a:
         cb:9d:7b:06:13:4a:f8:94:4c:e4:8d:74:4c:96:a3:49:f9:25:
         72:43:01:63
-----BEGIN X509 CRL-----
MIIDsjCCApoCAQEwDQYJKoZIhvcNAQELBQAwTDEgMB4GA1UECxMXR2xvYmFsU2ln
biBSb290IENBIC0gUjIxEzARBgNVBAoTCkdsb2JhbFNpZ24xEzARBgNVBAMTCkds
b2JhbFNpZ24XDTIwMTAwMTAwMDAwMFoXDTIxMDQxNTAwMDAwMFowggHnMCoCCwQA
AAAAASINPA91Fw0xNDExMjUwMDAwMDBaMAwwCgYDVR0VBAMKAQUwKgILBAAAAAAB
Ig08FMUXDTE0MTEyNTAwMDAwMFowDDAKBgNVHRUEAwoBBTAqAgsEAAAAAAEQC4yh
GxcNMTQxMTI1MDAwMDAwWjAMMAoGA1UdFQQDCgEFMCoCCwQAAAAAASf792cAFw0x
NDExMjUwMDAwMDBaMAwwCgYDVR0VBAMKAQUwKgILBAAAAAABRE7wRk4XDTE2MTAw
NzAwMDAwMFowDDAKBgNVHRUEAwoBBTAqAgsEAAAAAAESVq1fshcNMTYxMDA3MDAw
MDAwWjAMMAoGA1UdFQQDCgEFMCoCCwQAAAAAAS9O4VtjFw0xNzA0MDcwMDAwMDBa
MAwwCgYDVR0VBAMKAQUwKgILBAAAAAABL07hXdQXDTE3MDQwNzAwMDAwMFowDDAK
BgNVHRUEAwoBBTAqAgsEAAAAAAFETvBKVRcNMTkwOTMwMDAwMDAwWjAMMAoGA1Ud
FQQDCgEFMCsCDDASm/2A0ZPWs+I05BcNMTkwOTMwMDAwMDAwWjAMMAoGA1UdFQQD
CgEFMCwCDQHjqTAc/HIGOD+aUx0XDTE5MDkzMDAwMDAwMFowDDAKBgNVHRUEAwoB
BaAvMC0wCgYDVR0UBAMCASIwHwYDVR0jBBgwFoAUm+IHV2ccHsBqBt5ZtJot39wZ
hi4wDQYJKoZIhvcNAQELBQADggEBACNjTpjVd8K0aImkgYdqr0wqfNxOvdv1E/Zg
cxjhGyMb9ol8lzz8W5qK+SuqX9lv0kJoeM4tuYyNlYvuMzVSQoen40KNXgqbsv4f
FAZdsFfe7yIBIqpgOxSwGuegShfm5e2tliZeDcV2cS6XRoF+dX9CeHsUuv1IeJRd
OO+fPiqPSdyTmRsFcifSbWQq2Qh0xvKrDlH416AyGzOXWSieui09eM1UvMLjzAqP
iQksl/HPzJ4BHCxw7b1yOfJWL2s305qyA6pACS2CpkzLSh3ZDSVtSkbKkXgMsmf5
7oCW+hJX2X+THdOPhg1dmsudewYTSviUTOSNdEyWo0n5JXJDAWM=
-----END X509 CRL-----
