Certificate Revocation List (CRL):
        Version 2 (0x1)
        Signature Algorithm: sha256WithRSAEncryption
        Issuer: C = US, O = Google Trust Services, CN = GTS CA 1O1
        Last Update: Feb 22 18:42:29 2021 GMT
        Next Update: Mar  4 17:42:28 2021 GMT
        CRL extensions:
            X509v3 Authority Key Identifier:
                keyid:98:D1:F8:6E:10:EB:CF:9B:EC:60:9F:18:90:1B:A0:EB:7D:09:FD:2B

            X509v3 CRL Number:
                1468
            X509v3 Issuing Distribution Point: critical
                Full Name:
                  URI:http://crl.pki.goog/GTS1O1core.crl
                Only User Certificates

Revoked Certificates:
    Serial Number: F39E56E2F7A4E58C08000000007109DA
        Revocation Date: Feb 15 11:33:46 2021 GMT
    Serial Number: B3D2A4372FB0605908000000007109DF
        Revocation Date: Feb 15 11:33:47 2021 GMT
    Serial Number: B173BBEA12C745B60800000000710C03
        Revocation Date: Feb 15 14:17:30 2021 GMT
    Serial Number: 29DA84AF4CC472DF0800000000710C08
        Revocation Date: Feb 15 14:17:31 2021 GMT
    Serial Number: FBA06D6EA43EF1EC0800000000710CCA
        Revocation Date: Feb 16 11:33:44 2021 GMT
    Serial Number: 91FB0FD0F22B1F4F0800000000710CD2
        Revocation Date: Feb 16 11:33:46 2021 GMT
    Serial Number: 1CC5CFCF571A1DAB0800000000710DAC
        Revocation Date: Feb 17 11:33:45 2021 GMT
    Serial Number: 7B05B24FFA6BA5100800000000710DB4
        Revocation Date: Feb 17 11:33:47 2021 GMT
    Serial Number: 8E824EE0CCB0BFE80800000000710E7E
        Revocation Date: Feb 18 11:33:45 2021 GMT
    Serial Number: E2D99EADA98753290800000000710E84
        Revocation Date: Feb 18 11:33:48 2021 GMT
    Serial Number: DA01C3A90C4376A00800000000710EA5
        Revocation Date: Feb 18 14:53:25 2021 GMT
    Serial Number: 534FB32143408DF70800000000710EA9
        Revocation Date: Feb 18 14:53:27 2021 GMT
    Serial Number: A0A9FDCE8B2428BC0800000000710F76
        Revocation Date: Feb 19 14:53:28 2021 GMT
    Serial Number: 7457A331D58148ED0800000000710F7D
        Revocation Date: Feb 19 14:53:27 2021 GMT
    Serial Number: BEB60D9AB459F629080000000071103E
        Revocation Date: Feb 20 14:53:25 2021 GMT
    Serial Number: 51F83ACB3B531F380800000000711046
        Revocation Date: Feb 20 14:53:26 2021 GMT
    Serial Number: 65C6D812BD71B81B0800000000711108
        Revocation Date: Feb 21 14:53:37 2021 GMT
    Serial Number: DF573A48DF42D23B0800000000711109
        Revocation Date: Feb 21 14:53:37 2021 GMT
    Serial Number: 0116CFEDF68A1E6808000000007111D6
        Revocation Date: Feb 22 14:53:26 2021 GMT
    Serial Number: D0A995CB6D56F04508000000007111DB
        Revocation Date: Feb 22 14:53:26 2021 GMT
    Signature Algorithm: sha256WithRSAEncryption
         17:03:ac:fd:98:94:4a:15:7f:a8:60:b7:2c:ed:4d:fb:49:2d:
         2f:9a:d8:50:08:e4:ba:5b:45:fa:8d:7b:23:35:c0:b3:fc:5e:
         a9:ae:7e:15:78:df:fd:87:d9:d8:fd:60:ed:1c:a2:4a:5a:9f:
         7d:59:c0:95:f6:35:5f:58:20:cf:0e:53:8c:21:6b:91:56:c4:
         7c:41:43:53:10:fc:c8:48:16:39:9b:a1:0d:fa:0f:4a:e5:8d:
         86:4e:b9:ce:05:f2:e4:70:53:ee:7f:f9:ee:b6:b7:4f:99:3b:
         b7:bc:a3:3f:b5:b9:56:03:70:e5:c2:81:08:09:92:be:1a:48:
         a2:6e:1a:b8:58:4e:25:7d:89:1a:48:5a:37:f7:85:91:02:1b:
         86:ce:7e:3a:c0:72:1b:1e:b3:ec:71:01:dd:96:0d:bd:3d:71:
         46:bc:a9:ea:85:a8:5a:8b:44:74:a2:a8:90:71:a8:2c:db:f6:
         40:c4:6b:20:48:5d:8b:e4:27:f5:cf:24:5a:12:54:bb:f3:66:
         92:fe:52:30:c3:b5:8f:98:0a:45:94:de:6e:90:27:d3:1a:9a:
         1c:bc:6e:ab:54:f5:b3:72:a1:5e:c9:4c:e6:be:57:87:1d:5c:
         0e:dc:a7:04:37:a7:01:b6:2c:94:d0:8c:b1:b7:f8:bb:e4:d0:
         71:02:1b:5e
-----BEGIN X509 CRL-----
MIIEwzCCA6sCAQEwDQYJKoZIhvcNAQELBQAwQjELMAkGA1UEBhMCVVMxHjAcBgNV
BAoTFUdvb2dsZSBUcnVzdCBTZXJ2aWNlczETMBEGA1UEAxMKR1RTIENBIDFPMRcN
MjEwMjIyMTg0MjI5WhcNMjEwMzA0MTc0MjI4WjCCAsgwIgIRAPOeVuL3pOWMCAAA
AABxCdoXDTIxMDIxNTExMzM0NlowIgIRALPSpDcvsGBZCAAAAABxCd8XDTIxMDIx
NTExMzM0N1owIgIRALFzu+oSx0W2CAAAAABxDAMXDTIxMDIxNTE0MTczMFowIQIQ
KdqEr0zEct8IAAAAAHEMCBcNMjEwMjE1MTQxNzMxWjAiAhEA+6BtbqQ+8ewIAAAA
AHEMyhcNMjEwMjE2MTEzMzQ0WjAiAhEAkfsP0PIrH08IAAAAAHEM0hcNMjEwMjE2
MTEzMzQ2WjAhAhAcxc/PVxodqwgAAAAAcQ2sFw0yMTAyMTcxMTMzNDVaMCECEHsF
sk/6a6UQCAAAAABxDbQXDTIxMDIxNzExMzM0N1owIgIRAI6CTuDMsL/oCAAAAABx
Dn4XDTIxMDIxODExMzM0NVowIgIRAOLZnq2ph1MpCAAAAABxDoQXDTIxMDIxODEx
MzM0OFowIgIRANoBw6kMQ3agCAAAAABxDqUXDTIxMDIxODE0NTMyNVowIQIQU0+z
IUNAjfcIAAAAAHEOqRcNMjEwMjE4MTQ1MzI3WjAiAhEAoKn9zoskKLwIAAAAAHEP
dhcNMjEwMjE5MTQ1MzI4WjAhAhB0V6Mx1YFI7QgAAAAAcQ99Fw0yMTAyMTkxNDUz
MjdaMCICEQC+tg2atFn2KQgAAAAAcRA+Fw0yMTAyMjAxNDUzMjVaMCECEFH4Oss7
Ux84CAAAAABxEEYXDTIxMDIyMDE0NTMyNlowIQIQZcbYEr1xuBsIAAAAAHERCBcN
MjEwMjIxMTQ1MzM3WjAiAhEA31c6SN9C0jsIAAAAAHERCRcNMjEwMjIxMTQ1MzM3
WjAhAhABFs/t9ooeaAgAAAAAcRHWFw0yMTAyMjIxNDUzMjZaMCICEQDQqZXLbVbw
RQgAAAAAcRHbFw0yMTAyMjIxNDUzMjZaoGkwZzAfBgNVHSMEGDAWgBSY0fhuEOvP
m+xgnxiQG6DrfQn9KzALBgNVHRQEBAICBbwwNwYDVR0cAQH/BC0wK6AmoCSGImh0
dHA6Ly9jcmwucGtpLmdvb2cvR1RTMU8xY29yZS5jcmyBAf8wDQYJKoZIhvcNAQEL
BQADggEBABcDrP2YlEoVf6hgtyztTftJLS+a2FAI5LpbRfqNeyM1wLP8XqmufhV4
3/2H2dj9YO0cokpan31ZwJX2NV9YIM8OU4wha5FWxHxBQ1MQ/MhIFjmboQ36D0rl
jYZOuc4F8uRwU+5/+e62t0+ZO7e8oz+1uVYDcOXCgQgJkr4aSKJuGrhYTiV9iRpI
Wjf3hZECG4bOfjrAchses+xxAd2WDb09cUa8qeqFqFqLRHSiqJBxqCzb9kDEayBI
XYvkJ/XPJFoSVLvzZpL+UjDDtY+YCkWU3m6QJ9Mamhy8bqtU9bNyoV7JTOa+V4cd
XA7cpwQ3pwG2LJTQjLG3+Lvk0HECG14=
-----END X509 CRL-----
